; Function Attrs: mustprogress nofree norecurse nosync nounwind willreturn memory(read, inaccessiblemem: none) uwtable
define dso_local range(i64 0, 4294967296) i64 @SlabGetChunkSpace(ptr noundef readonly captures(none) %0) local_unnamed_addr #9 {
  %2 = getelementptr inbounds i8, ptr %0, i64 -8
  %3 = load i64, ptr %2, align 8
  %4 = lshr i64 %3, 34
  %5 = and i64 %4, 1073741822
  %6 = sub nsw i64 0, %5
  %7 = getelementptr inbounds i8, ptr %2, i64 %6
  %8 = load ptr, ptr %7, align 8
  %9 = getelementptr inbounds nuw i8, ptr %8, i64 84
  %10 = load i32, ptr %9, align 4
  %11 = zext i32 %10 to i64
  ret i64 %11
}